ccopy_reg
_reconstructor
p0
(cInstruction
Instructions
p1
c__builtin__
object
p2
Ntp3
Rp4
(dp5
S'list'
p6
(lp7
g0
(cInstruction
Release
p8
g2
Ntp9
Rp10
(dp11
S'arguments'
p12
(S'Release'
p13
tp14
sbag0
(cInstruction
GoTo
p15
g2
Ntp16
Rp17
(dp18
g12
(S'GoTo'
p19
F-1.49
F-10.03
F18.9
tp20
sbag0
(g15
g2
Ntp21
Rp22
(dp23
g12
(g19
F-1.49
F-10.03
F10.5
tp24
sbag0
(cInstruction
Catch
p25
g2
Ntp26
Rp27
(dp28
g12
(S'Catch'
p29
tp30
sbag0
(g15
g2
Ntp31
Rp32
(dp33
g12
(g19
F-1.49
F-10.03
F18.0
tp34
sbag0
(g15
g2
Ntp35
Rp36
(dp37
g12
(g19
F-15.0
F-10.03
F18.0
tp38
sbag0
(g15
g2
Ntp39
Rp40
(dp41
g12
(g19
F-15.0
F-10.03
F9.5
tp42
sbag0
(g8
g2
Ntp43
Rp44
(dp45
g12
(g13
tp46
sbag0
(g15
g2
Ntp47
Rp48
(dp49
g12
(g19
F-15.0
F-10.03
F19.0
tp50
sbag0
(g15
g2
Ntp51
Rp52
(dp53
g12
(g19
F-1.49
F-10.03
F18.9
tp54
sbag0
(g15
g2
Ntp55
Rp56
(dp57
g12
(g19
F-1.49
F-10.03
F9.5
tp58
sbag0
(g25
g2
Ntp59
Rp60
(dp61
g12
(g29
tp62
sbag0
(g15
g2
Ntp63
Rp64
(dp65
g12
(g19
F-1.49
F-10.03
F19.0
tp66
sbag0
(g15
g2
Ntp67
Rp68
(dp69
g12
(g19
F-15.0
F-10.03
F19.0
tp70
sbag0
(g15
g2
Ntp71
Rp72
(dp73
g12
(g19
F-15.0
F-10.03
F10.5
tp74
sbag0
(g8
g2
Ntp75
Rp76
(dp77
g12
(g13
tp78
sbag0
(g15
g2
Ntp79
Rp80
(dp81
g12
(g19
F-15.0
F-10.03
F19.0
tp82
sbag0
(g15
g2
Ntp83
Rp84
(dp85
g12
(g19
F-1.49
F-10.03
F19.0
tp86
sbag0
(g15
g2
Ntp87
Rp88
(dp89
g12
(g19
F-1.49
F-10.03
F8.5
tp90
sbag0
(g25
g2
Ntp91
Rp92
(dp93
g12
(g29
tp94
sbag0
(g15
g2
Ntp95
Rp96
(dp97
g12
(g19
F-1.49
F-10.03
F19.0
tp98
sbag0
(g15
g2
Ntp99
Rp100
(dp101
g12
(g19
F-15.0
F-10.03
F19.0
tp102
sbag0
(g15
g2
Ntp103
Rp104
(dp105
g12
(g19
F-15.0
F-10.03
F11.5
tp106
sbag0
(g8
g2
Ntp107
Rp108
(dp109
g12
(g13
tp110
sbag0
(g15
g2
Ntp111
Rp112
(dp113
g12
(g19
F-15.0
F-10.03
F19.0
tp114
sbasb.