ccopy_reg
_reconstructor
p0
(cInstruction
Instructions
p1
c__builtin__
object
p2
Ntp3
Rp4
(dp5
S'list'
p6
(lp7
g0
(cInstruction
GoTo
p8
g2
Ntp9
Rp10
(dp11
S'arguments'
p12
(S'GoTo'
p13
F9.0
F-10.0
F14.0
tp14
sbag0
(g8
g2
Ntp15
Rp16
(dp17
g12
(g13
F0.0
F-5.0
F14.0
tp18
sbag0
(g8
g2
Ntp19
Rp20
(dp21
g12
(g13
F0.0
F-24.0
F12.0
tp22
sbag0
(g8
g2
Ntp23
Rp24
(dp25
g12
(g13
F-14.0
F-9.0
F14.0
tp26
sbasb.