ccopy_reg
_reconstructor
p0
(cInstruction
Instructions
p1
c__builtin__
object
p2
Ntp3
Rp4
(dp5
S'list'
p6
(lp7
g0
(cInstruction
Repeat
p8
g2
Ntp9
Rp10
(dp11
S'arguments'
p12
(S'Repeat'
p13
V2
p14
tp15
sbag0
(cInstruction
GoTo
p16
g2
Ntp17
Rp18
(dp19
g12
(S'GoTo'
p20
F-4.0
F-11.0
F18.9
tp21
sbag0
(g16
g2
Ntp22
Rp23
(dp24
g12
(g20
F-4.0
F-11.0
F9.0
tp25
sbag0
(cInstruction
Catch
p26
g2
Ntp27
Rp28
(dp29
g12
(S'Catch'
p30
tp31
sbag0
(g16
g2
Ntp32
Rp33
(dp34
g12
(S'GoTo'
p35
F-4.0
F-11.0
F14.0
tp36
sbag0
(g16
g2
Ntp37
Rp38
(dp39
g12
(g35
F6.0
F-11.0
F14.0
tp40
sbag0
(g16
g2
Ntp41
Rp42
(dp43
g12
(g35
F6.0
F-11.0
F10.0
tp44
sbag0
(cInstruction
Release
p45
g2
Ntp46
Rp47
(dp48
g12
(S'Release'
p49
tp50
sbag0
(cInstruction
EndRepeat
p51
g2
Ntp52
Rp53
(dp54
g12
(S'EndRepeat'
p55
tp56
sbag0
(g8
g2
Ntp57
Rp58
(dp59
g12
(g13
g14
tp60
sbag0
(g16
g2
Ntp61
Rp62
(dp63
g12
(g35
F-4.0
F-11.0
F14.0
tp64
sbag0
(g16
g2
Ntp65
Rp66
(dp67
g12
(g35
F-4.0
F-11.0
F8.7
tp68
sbag0
(g26
g2
Ntp69
Rp70
(dp71
g12
(S'Catch'
p72
tp73
sbag0
(g16
g2
Ntp74
Rp75
(dp76
g12
(g35
F-4.0
F-11.0
F14.0
tp77
sbag0
(g16
g2
Ntp78
Rp79
(dp80
g12
(g35
F6.0
F-11.0
F13.0
tp81
sbag0
(g16
g2
Ntp82
Rp83
(dp84
g12
(g35
F6.0
F-11.0
F10.0
tp85
sbag0
(g45
g2
Ntp86
Rp87
(dp88
g12
(g49
tp89
sbag0
(g51
g2
Ntp90
Rp91
(dp92
g12
(g55
tp93
sbasb.